; Function Attrs: cold inlinehint noreturn nounwind uwtable
define internal fastcc void @err_sys_with_errno(ptr noundef %0) unnamed_addr #15 {
  %2 = load ptr, ptr @stderr, align 8, !tbaa !26
  %3 = tail call ptr @__errno_location() #27
  %4 = load i32, ptr %3, align 4, !tbaa !4
  %5 = tail call ptr @strerror(i32 noundef %4) #20
  %6 = tail call i32 (ptr, ptr, ...) @fprintf(ptr noundef %2, ptr noundef nonnull @.str.192, ptr noundef %0, ptr noundef %5) #26
  tail call void @exit(i32 noundef 1) #23
  unreachable
}